target datalayout = "e-m:e-p270:32:32-p271:32:32-p272:64:64-i64:64-i128:128-f80:128-n8:16:32:64-S128"
target triple = "x86_64-pc-linux-gnu"

%struct.timespec = type { i64, i64 }

@.str = private unnamed_addr constant [14 x i8] c"Output %6d : \00", align 1
@.str.1 = private unnamed_addr constant [8 x i8] c"Total: \00", align 1
@.str.2 = private unnamed_addr constant [16 x i8] c"UNDECIDED      \00", align 1
@.str.3 = private unnamed_addr constant [16 x i8] c"SATISFIABLE    \00", align 1
@.str.4 = private unnamed_addr constant [16 x i8] c"UNSATISFIABLE  \00", align 1
@.str.5 = private unnamed_addr constant [5 x i8] c"Time\00", align 1
@.str.10 = private unnamed_addr constant [5 x i8] c"%s =\00", align 1
@.str.11 = private unnamed_addr constant [11 x i8] c"%9.2f sec\0A\00", align 1

; Function Attrs: inlinehint nounwind uwtable
define internal void @Abc_PrintTime(i32 noundef %0, ptr noundef %1, i64 noundef %2) #2 {
  %4 = alloca i32, align 4
  %5 = alloca ptr, align 8
  %6 = alloca i64, align 8
  store i32 %0, ptr %4, align 4, !tbaa !3
  store ptr %1, ptr %5, align 8, !tbaa !25
  store i64 %2, ptr %6, align 8, !tbaa !23
  %7 = load ptr, ptr %5, align 8, !tbaa !25
  call void (i32, ptr, ...) @Abc_Print(i32 noundef 1, ptr noundef @.str.10, ptr noundef %7)
  %8 = load i64, ptr %6, align 8, !tbaa !23
  %9 = sitofp i64 %8 to double
  %10 = fmul double 1.000000e+00, %9
  %11 = fdiv double %10, 1.000000e+06
  call void (i32, ptr, ...) @Abc_Print(i32 noundef 1, ptr noundef @.str.11, double noundef %11)
  ret void
}

; Function Attrs: nounwind uwtable
define void @Gia_ManSatokoReport(i32 noundef %0, i32 noundef %1, i64 noundef %2) #0 {
  %4 = alloca i32, align 4
  %5 = alloca i32, align 4
  %6 = alloca i64, align 8
  store i32 %0, ptr %4, align 4, !tbaa !3
  store i32 %1, ptr %5, align 4, !tbaa !3
  store i64 %2, ptr %6, align 8, !tbaa !23
  %7 = load i32, ptr %4, align 4, !tbaa !3
  %8 = icmp sge i32 %7, 0
  br i1 %8, label %9, label %11

9:                                                ; preds = %3
  %10 = load i32, ptr %4, align 4, !tbaa !3
  call void (i32, ptr, ...) @Abc_Print(i32 noundef 1, ptr noundef @.str, i32 noundef %10)
  br label %12

11:                                               ; preds = %3
  call void (i32, ptr, ...) @Abc_Print(i32 noundef 1, ptr noundef @.str.1)
  br label %12

12:                                               ; preds = %11, %9
  %13 = load i32, ptr %5, align 4, !tbaa !3
  %14 = icmp eq i32 %13, 0
  br i1 %14, label %15, label %16

15:                                               ; preds = %12
  call void (i32, ptr, ...) @Abc_Print(i32 noundef 1, ptr noundef @.str.2)
  br label %22

16:                                               ; preds = %12
  %17 = load i32, ptr %5, align 4, !tbaa !3
  %18 = icmp eq i32 %17, 1
  br i1 %18, label %19, label %20

19:                                               ; preds = %16
  call void (i32, ptr, ...) @Abc_Print(i32 noundef 1, ptr noundef @.str.3)
  br label %21

20:                                               ; preds = %16
  call void (i32, ptr, ...) @Abc_Print(i32 noundef 1, ptr noundef @.str.4)
  br label %21

21:                                               ; preds = %20, %19
  br label %22

22:                                               ; preds = %21, %15
  %23 = load i64, ptr %6, align 8, !tbaa !23
  call void @Abc_PrintTime(i32 noundef 1, ptr noundef @.str.5, i64 noundef %23)
  ret void
}

; Function Attrs: inlinehint nounwind uwtable
define internal i64 @Abc_Clock() #2 {
  %1 = alloca i64, align 8
  %2 = alloca %struct.timespec, align 8
  %3 = alloca i32, align 4
  %4 = alloca i64, align 8
  call void @llvm.lifetime.start.p0(i64 16, ptr %2) #11
  %5 = call i32 @clock_gettime(i32 noundef 1, ptr noundef %2) #11
  %6 = icmp slt i32 %5, 0
  br i1 %6, label %7, label %8

7:                                                ; preds = %0
  store i64 -1, ptr %1, align 8
  store i32 1, ptr %3, align 4
  br label %19

8:                                                ; preds = %0
  call void @llvm.lifetime.start.p0(i64 8, ptr %4) #11
  %9 = getelementptr inbounds nuw %struct.timespec, ptr %2, i32 0, i32 0
  %10 = load i64, ptr %9, align 8, !tbaa !72
  %11 = mul nsw i64 %10, 1000000
  store i64 %11, ptr %4, align 8, !tbaa !23
  %12 = getelementptr inbounds nuw %struct.timespec, ptr %2, i32 0, i32 1
  %13 = load i64, ptr %12, align 8, !tbaa !74
  %14 = mul nsw i64 %13, 1000000
  %15 = sdiv i64 %14, 1000000000
  %16 = load i64, ptr %4, align 8, !tbaa !23
  %17 = add nsw i64 %16, %15
  store i64 %17, ptr %4, align 8, !tbaa !23
  %18 = load i64, ptr %4, align 8, !tbaa !23
  store i64 %18, ptr %1, align 8
  store i32 1, ptr %3, align 4
  call void @llvm.lifetime.end.p0(i64 8, ptr %4) #11
  br label %19

19:                                               ; preds = %8, %7
  call void @llvm.lifetime.end.p0(i64 16, ptr %2) #11
  %20 = load i64, ptr %1, align 8
  ret i64 %20
}

; Function Attrs: nounwind uwtable
define void @Gia_ManSatokoDimacs(ptr noundef %0, ptr noundef %1) #0 {
  %3 = alloca ptr, align 8
  %4 = alloca ptr, align 8
  %5 = alloca i64, align 8
  %6 = alloca i32, align 4
  %7 = alloca ptr, align 8
  store ptr %0, ptr %3, align 8, !tbaa !25
  store ptr %1, ptr %4, align 8, !tbaa !29
  call void @llvm.lifetime.start.p0(i64 8, ptr %5) #11
  %8 = call i64 @Abc_Clock()
  store i64 %8, ptr %5, align 8, !tbaa !23
  call void @llvm.lifetime.start.p0(i64 4, ptr %6) #11
  store i32 -1, ptr %6, align 4, !tbaa !3
  call void @llvm.lifetime.start.p0(i64 8, ptr %7) #11
  %9 = load ptr, ptr %3, align 8, !tbaa !25
  %10 = load ptr, ptr %4, align 8, !tbaa !29
  %11 = call ptr @Gia_ManSatokoFromDimacs(ptr noundef %9, ptr noundef %10)
  store ptr %11, ptr %7, align 8, !tbaa !31
  %12 = load ptr, ptr %7, align 8, !tbaa !31
  %13 = icmp ne ptr %12, null
  br i1 %13, label %14, label %18

14:                                               ; preds = %2
  %15 = load ptr, ptr %7, align 8, !tbaa !31
  %16 = call i32 @satoko_solve(ptr noundef %15)
  store i32 %16, ptr %6, align 4, !tbaa !3
  %17 = load ptr, ptr %7, align 8, !tbaa !31
  call void @satoko_destroy(ptr noundef %17)
  br label %18

18:                                               ; preds = %14, %2
  %19 = load i32, ptr %6, align 4, !tbaa !3
  %20 = call i64 @Abc_Clock()
  %21 = load i64, ptr %5, align 8, !tbaa !23
  %22 = sub nsw i64 %20, %21
  call void @Gia_ManSatokoReport(i32 noundef -1, i32 noundef %19, i64 noundef %22)
  call void @llvm.lifetime.end.p0(i64 8, ptr %7) #11
  call void @llvm.lifetime.end.p0(i64 4, ptr %6) #11
  call void @llvm.lifetime.end.p0(i64 8, ptr %5) #11
  ret void
}