; Function Attrs: nounwind uwtable
define void @Gia_ManSatokoDimacs(ptr noundef %0, ptr noundef readnone captures(none) %1) local_unnamed_addr #0 {
  %3 = alloca %struct.timespec, align 8
  %4 = alloca %struct.timespec, align 8
  call void @llvm.lifetime.start.p0(i64 16, ptr nonnull %4) #16
  %5 = call i32 @clock_gettime(i32 noundef 1, ptr noundef nonnull %4) #16
  %6 = icmp slt i32 %5, 0
  br i1 %6, label %Abc_Clock.exit, label %7

7:                                                ; preds = %2
  %8 = load i64, ptr %4, align 8, !tbaa !29
  %.neg9 = mul i64 %8, -1000000
  %9 = getelementptr inbounds nuw i8, ptr %4, i64 8
  %10 = load i64, ptr %9, align 8, !tbaa !32
  %.neg = sdiv i64 %10, -1000
  %.neg10 = add i64 %.neg, %.neg9
  br label %Abc_Clock.exit

Abc_Clock.exit:                                   ; preds = %2, %7
  %.0.i.neg = phi i64 [ %.neg10, %7 ], [ 1, %2 ]
  call void @llvm.lifetime.end.p0(i64 16, ptr nonnull %4) #16
  %11 = call ptr @Gia_ManSatokoFromDimacs(ptr noundef %0, ptr poison)
  %.not = icmp eq ptr %11, null
  br i1 %.not, label %14, label %12

12:                                               ; preds = %Abc_Clock.exit
  %13 = call i32 @satoko_solve(ptr noundef nonnull %11) #16
  call void @satoko_destroy(ptr noundef nonnull %11) #16
  br label %14

14:                                               ; preds = %12, %Abc_Clock.exit
  %.0 = phi i32 [ %13, %12 ], [ -1, %Abc_Clock.exit ]
  call void @llvm.lifetime.start.p0(i64 16, ptr nonnull %3) #16
  %15 = call i32 @clock_gettime(i32 noundef 1, ptr noundef nonnull %3) #16
  %16 = icmp slt i32 %15, 0
  br i1 %16, label %Abc_Clock.exit8, label %17

17:                                               ; preds = %14
  %18 = load i64, ptr %3, align 8, !tbaa !29
  %19 = mul nsw i64 %18, 1000000
  %20 = getelementptr inbounds nuw i8, ptr %3, i64 8
  %21 = load i64, ptr %20, align 8, !tbaa !32
  %22 = sdiv i64 %21, 1000
  %23 = add nsw i64 %22, %19
  br label %Abc_Clock.exit8

Abc_Clock.exit8:                                  ; preds = %14, %17
  %.0.i7 = phi i64 [ %23, %17 ], [ -1, %14 ]
  call void @llvm.lifetime.end.p0(i64 16, ptr nonnull %3) #16
  %24 = add i64 %.0.i7, %.0.i.neg
  call void (i32, ptr, ...) @Abc_Print(i32 poison, ptr noundef nonnull @.str.1)
  %switch.selectcmp.i = icmp eq i32 %.0, 1
  %switch.select.i = select i1 %switch.selectcmp.i, ptr @.str.3, ptr @.str.4
  %switch.selectcmp6.i = icmp eq i32 %.0, 0
  %switch.select7.i = select i1 %switch.selectcmp6.i, ptr @.str.2, ptr %switch.select.i
  call void (i32, ptr, ...) @Abc_Print(i32 poison, ptr noundef nonnull %switch.select7.i)
  call void (i32, ptr, ...) @Abc_Print(i32 poison, ptr noundef nonnull @.str.10, ptr noundef nonnull @.str.5)
  %25 = sitofp i64 %24 to double
  %26 = fdiv double %25, 1.000000e+06
  call void (i32, ptr, ...) @Abc_Print(i32 poison, ptr noundef nonnull @.str.11, double noundef %26)
  ret void
}